(dp1
Vetl_config
p2
(dp3
VDATA_PROVIDERS
p4
(lp5
(dp6
Vtype
p7
VHttpAPI
p8
sVname
p9
VopenDataSoft
p10
sVoptions
p11
(dp12
Vbaseroute
p13
Vhttps://data.opendatasoft.com/api/
p14
ssasVDATA_SOURCES
p15
(lp16
(dp17
Vdomain
p18
Vsample_reports
p19
sVtype
p20
Vcsv
p21
sVfile
p22
Vreports.csv
p23
sa(dp24
Vdomain
p25
Vsample_dashboards
p26
sVtype
p27
Vcsv
p28
sVfile
p29
Vdashboards.csv
p30
sa(dp31
Vdomain
p32
Vmy_dates_data
p33
sVtype
p34
Vcsv
p35
sVfile
p36
Vmy_dates_data.csv
p37
sa(dp38
Vdomain
p39
Vmy_reports_data
p40
sVtype
p41
Vcsv
p42
sVfile
p43
Vmy_reports_data.csv
p44
sa(dp45
Vdomain
p46
Vmy_dashboards_data
p47
sVtype
p48
Vcsv
p49
sVfile
p50
Vmy_dashboards_data.csv
p51
sa(dp52
Vdomain
p53
Vslide_data
p54
sVtype
p55
Vcsv
p56
sVfile
p57
Vslide_data.csv
p58
sa(dp59
Vdomain
p60
Vgrowth-vs-return
p61
sVname
p62
VopenDataSoft
p63
sVurl
p64
Vrecords/1.0/search/
p65
sVfilter
p66
V.records[].fields
p67
sVparams
p68
(dp69
Vdataset
p70
Vreturn-to-capital-and-growth-rate-of-the-world-0-2200@public
p71
ssVtype
p72
VHttpAPI
p73
sVmethod
p74
VGET
p75
sa(dp76
Vdomain
p77
Vconcentration-of-wealth
p78
sVname
p79
VopenDataSoft
p80
sVurl
p81
Vrecords/1.0/search/
p82
sVfilter
p83
V.records[].fields
p84
sVparams
p85
(dp86
Vrows
p87
I21
sVdataset
p88
Vconcentration-of-wealth-in-europe-and-in-the-usa-1810-2010@public
p89
ssVtype
p90
VHttpAPI
p91
sVmethod
p92
VGET
p93
sa(dp94
Vdomain
p95
Vworld-output-distribution
p96
sVname
p97
VopenDataSoft
p98
sVurl
p99
Vrecords/1.0/search/
p100
sVfilter
p101
V.records[].fields
p102
sVparams
p103
(dp104
Vrows
p105
I24
sVdataset
p106
Vworld-output-distribution1870-2100-estimate@public
p107
ssVtype
p108
VHttpAPI
p109
sVmethod
p110
VGET
p111
sa(dp112
Vdomain
p113
Vprivate-capital-vs-national-income
p114
sVname
p115
VopenDataSoft
p116
sVurl
p117
Vrecords/1.0/search/
p118
sVfilter
p119
V.records[].fields
p120
sVparams
p121
(dp122
Vrows
p123
I41
sVdataset
p124
Vprivate-capitalnational-income-ratios-in-rich-countries-1970-2010@public
p125
ssVtype
p126
VHttpAPI
p127
sVmethod
p128
VGET
p129
sa(dp130
Vdomain
p131
Vemployment-by-sector
p132
sVname
p133
VopenDataSoft
p134
sVurl
p135
Vrecords/1.0/search/
p136
sVfilter
p137
V.records[].fields
p138
sVparams
p139
(dp140
Vdataset
p141
Vemployment-by-sector-in-france-and-the-united-states-1800-2012@public
p142
ssVtype
p143
VHttpAPI
p144
sVmethod
p145
VGET
p146
sa(dp147
Vdomain
p148
Vlabor-vs-capital
p149
sVname
p150
VopenDataSoft
p151
sVurl
p152
Vrecords/1.0/search/
p153
sVfilter
p154
V.records[].fields
p155
sVparams
p156
(dp157
Vrows
p158
I80
sVdataset
p159
Vstructure-of-national-income-in-france-1896-2008-capital-labor-shares-in-nationa@public
p160
ssVtype
p161
VHttpAPI
p162
sVmethod
p163
VGET
p164
sasVMONGO_INDEXES
p165
(lp166
Vdomain
p167
asVDASHBOARDS
p168
(lp169
(dp170
Vreport
p171
Vmy_report_name_column
p172
sVquery
p173
(dp174
Vdomain
p175
Vsample_dashboards
p176
ssVtemplate
p177
Vdashboard1
p178
sasVREPORTS
p179
(lp180
(dp181
Vquery
p182
(dp183
Vdomain
p184
Vsample_reports
p185
ssVtemplate
p186
Vreport
p187
sasVMAX_SELECTABLE_DASHBOARDS
p188
I500
ss.