(dp1
Vglossary
p2
(lp3
sVslides
p4
(lp5
(dp6
Vid
p7
I0
sVlevel
p8
I0
sa(dp9
Vtitle
p10
VPiketty visualized
p11
sVid
p12
I10
sVlevel
p13
I1
sa(dp14
Vparent_id
p15
I10
sVtitle
p16
VGrowth vs return
p17
sVsource
p18
VSource: API openDataSoft<br>Licence: https://www.quandl.com/about/terms
p19
sVlevel
p20
I3
sVid
p21
I10001
sVchartOptions
p22
(dp23
Vlabel
p24
Vdate
p25
sVcy
p26
Vg
sVcx
p27
Vr_after_taxes
p28
sVunits
p29
(dp30
Vcy
p31
S''
sVcx
p32
S''
sVr
S''
ssVchartType
p33
Vbubblechart
p34
sVr
Vr_before_taxes
p35
sVdata
p36
(dp37
Vquery
p38
(dp39
Vdate
p40
(dp41
V$ne
p42
V2200-12-31
p43
ssVdomain
p44
Vgrowth-vs-return
p45
ssVprecision
p46
(dp47
Vcy
p48
V,.2f
p49
sVcx
p50
V,.2f
p51
sVr
V,.2f
p52
sssVlegend
p53
I01
ssa(dp54
Vparent_id
p55
I10
sVtitle
p56
VConcentration of wealth
p57
sVsource
p58
VSource: API openDataSoft<br>Licence: https://www.quandl.com/about/terms
p59
sVfilters
p60
(dp61
Vbottom-right
p62
(dp63
Von
p64
Vtype
p65
sVtype
p66
Vbuttons
p67
sssVlevel
p68
I3
sVid
p69
I10002
sVchartOptions
p70
(dp71
Vvalue
p72
Vvalue
p73
sVdate
p74
Vdate
p75
sVgroups
p76
Vzone
p77
sVunits
p78
(dp79
Vvalue
p80
V %
p81
ssVchartType
p82
Vlinechart
p83
sVdata
p84
(dp85
Vdate
p86
(dp87
Vformat
p88
V%Y-%m-%d
p89
sVselector
p90
Vdate
p91
ssVquery
p92
(dp93
Vdomain
p94
Vconcentration-of-wealth
p95
sVvalue
p96
(dp97
V$ne
p98
NsssVprecision
p99
(dp100
Vvalue
p101
V,.1f
p102
sssVlegend
p103
I01
ssa(dp104
Vparent_id
p105
I10
sVtitle
p106
VWorld Output Distribution
p107
sVsource
p108
VSource: API openDataSoft<br>Licence: https://www.quandl.com/about/terms
p109
sVfilters
p110
(dp111
Vbottom-right
p112
(dp113
Von
p114
Vdate
p115
sVtype
p116
Vslider
p117
sssVlevel
p118
I3
sVid
p119
I10003
sVchartOptions
p120
(dp121
Vfilters
p122
(dp123
Vupper-middle
p124
(dp125
Von
p126
Vtype_value
p127
sVdefaultSelected
p128
Vvalue
p129
sVtype
p130
Vbuttons
p131
sssVtype
p132
Vtype
p133
sVvalue
p134
Vvalue
p135
sVlabel
p136
Vvariable
p137
sVgroups
p138
Vregion
p139
sVunits
p140
(dp141
Vvalue
p142
(lp143
(dp144
Vwhere
p145
(dp146
Vtype_value
p147
V%
ssVunit
p148
V %
p149
sa(dp150
Vwhere
p151
(dp152
Vtype_value
p153
Vvalue
p154
ssVunit
p155
V $bn
p156
sassVchartType
p157
Vwaterfallchart
p158
sVdata
p159
(dp160
Vquery
p161
(dp162
Vdomain
p163
Vworld-output-distribution
p164
ssVprecision
p165
(dp166
Vvalue
p167
(lp168
(dp169
Vwhere
p170
(dp171
Vtype_value
p172
V%
ssVprecision
p173
V,.1f
p174
sa(dp175
Vwhere
p176
(dp177
Vtype_value
p178
Vvalue
p179
ssVprecision
p180
V,.0f
p181
sassssa(dp182
Vparent_id
p183
I10
sVtitle
p184
VPrivate capital vs National income
p185
sVsource
p186
VSource: API openDataSoft<br>Licence: https://www.quandl.com/about/terms
p187
sVlevel
p188
I3
sVid
p189
I10004
sVchartOptions
p190
(dp191
Vsentiment
p192
(dp193
Vvalue
p194
(dp195
Vdomain
p196
(lp197
I300
aI450
asVrange
p198
(lp199
Vpositive
p200
aVwarning
p201
aVnegative
p202
asssVvalue
p203
Vvalue
p204
sVx
Vvariable
p205
sVy
Vyear
p206
sVchartType
p207
Vnew-heatmap
p208
sVdata
p209
(dp210
Vquery
p211
(lp212
(dp213
V$match
p214
(dp215
Vdomain
p216
Vprivate-capital-vs-national-income
p217
ssa(dp218
V$sort
p219
(dp220
Vyear
p221
I1
ssasssa(dp222
Vparent_id
p223
I10
sVtitle
p224
VEmployment by sector
p225
sVcharts
p226
(lp227
(dp228
Vvalue
p229
Vvalue
p230
sVid
p231
I0
sVdate
p232
Vyear
p233
sVcrossfilter
p234
(dp235
Von
p236
Vyear
p237
sVdatasets
p238
(lp239
I1
assVgroups
p240
Vcountry
p241
sVunits
p242
(dp243
Vvalue
p244
V %
p245
ssVchartType
p246
Vlinechart
p247
sVdata
p248
(dp249
Vdate
p250
(dp251
Vformat
p252
V%Y-%m-%d
p253
sVselector
p254
Vyear
p255
ssVquery
p256
(dp257
Vsector
p258
Vservices
p259
sVdomain
p260
Vemployment-by-sector
p261
ssVprecision
p262
(dp263
Vvalue
p264
V,.1f
p265
sssVlegend
p266
I01
sa(dp267
Vid
p268
I1
sVvalue
p269
Vvalue
p270
sVlabel
p271
Vcountry
p272
sVgroups
p273
Vsector
p274
sVhideTotal
p275
I01
sVunits
p276
(dp277
Vvalue
p278
V %
p279
ssVchartType
p280
VstackedBarchart
p281
sVdata
p282
(dp283
Vdate
p284
(dp285
Vformat
p286
V%Y-%m-%d
p287
sVselector
p288
Vyear
p289
ssVquery
p290
(dp291
Vdomain
p292
Vemployment-by-sector
p293
ssVprecision
p294
(dp295
Vvalue
p296
V,.1f
p297
sssVlegend
p298
I01
sasVsource
p299
VSource: API openDataSoft<br>Licence: https://www.quandl.com/about/terms
p300
sVlevel
p301
I3
sVid
p302
I10005
sasVsettings
p303
(lp304
s.