(dp1
Vdefault
p2
I01
sVreport
p3
V{{ report_id }}
p4
sVentityName
p5
V{{ my_dashboard_name_column }}
p6
sVid
p7
V{{ index }}
p8
sVcategories
p9
(lp10
(dp11
Vkpis
p12
(lp13
(dp14
Vsource
p15
VSource: API openDataSoft<br>Licence: https://www.quandl.com/about/terms
p16
sVslide
p17
I10001
sVtype
p18
Vline
p19
sVname
p20
VWorld Return after taxes
p21
sVchartOptions
p22
(dp23
Vdate
p24
Vdate
p25
sVunits
p26
(dp27
Vr_after_taxes
p28
V %
p29
ssVdata
p30
(dp31
Vdate
p32
(dp33
Vformat
p34
V%Y-%m-%d
p35
sVselector
p36
Vdate
p37
ssVquery
p38
(dp39
Vdate
p40
(dp41
V$ne
p42
V2200-12-31
p43
ssVdomain
p44
Vgrowth-vs-return
p45
ssVprecision
p46
(dp47
Vr_after_taxes
p48
V,.1f
p49
sssVvalue
p50
Vr_after_taxes
p51
ssa(dp52
Vsource
p53
VSource: API openDataSoft<br>Licence: https://www.quandl.com/about/terms
p54
sVslide
p55
I10001
sVtype
p56
Vline
p57
sVname
p58
VWorld Growth
p59
sVchartOptions
p60
(dp61
Vdate
p62
Vdate
p63
sVunits
p64
(dp65
Vg
V %
p66
ssVdata
p67
(dp68
Vdate
p69
(dp70
Vformat
p71
V%Y-%m-%d
p72
sVselector
p73
Vdate
p74
ssVquery
p75
(dp76
Vdate
p77
(dp78
V$ne
p79
V2200-12-31
p80
ssVdomain
p81
Vgrowth-vs-return
p82
ssVprecision
p83
(dp84
Vg
V,.1f
p85
sssVvalue
p86
Vg
ssa(dp87
Vslide
p88
I10001
sVtype
p89
Vscore-card
p90
sVname
p91
VFocus on 2012
p92
sVchartOptions
p93
(dp94
Vunits
p95
(dp96
Vvalue
p97
V %
p98
ssVlimit
p99
I3
sVdata
p100
(dp101
Vquery
p102
(dp103
Vdate
p104
V2012-12-31
p105
sVdomain
p106
Vgrowth-vs-return
p107
ssVprecision
p108
(dp109
Vvalue
p110
V,.1f
p111
ssVpostprocess
p112
(lp113
(dp114
Vmelt
p115
(dp116
Vid
p117
(lp118
Vdate
p119
asVvalue
p120
(lp121
Vr_before_taxes
p122
aVr_after_taxes
p123
aVg
assassVvalue
p124
Vvalue
p125
sVlabel
p126
Vvariable
p127
ssasVname
p128
VGrowth vs return on the long term
p129
sa(dp130
Vkpis
p131
(lp132
(dp133
Vsource
p134
VSource: API openDataSoft<br>Licence: https://www.quandl.com/about/terms
p135
sVslide
p136
I10002
sVtype
p137
Vline
p138
sVname
p139
VTop 1% in France
p140
sVchartOptions
p141
(dp142
Vdate
p143
Vdate
p144
sVunits
p145
(dp146
Vvalue
p147
V %
p148
ssVdata
p149
(dp150
Vdate
p151
(dp152
Vformat
p153
V%Y-%m-%d
p154
sVselector
p155
Vdate
p156
ssVquery
p157
(dp158
Vdomain
p159
Vconcentration-of-wealth
p160
sVtype
p161
Vtop_1
p162
sVzone
p163
Vfrance
p164
ssVprecision
p165
(dp166
Vvalue
p167
V,.1f
p168
sssVvalue
p169
Vvalue
p170
ssa(dp171
Vsource
p172
VSource: API openDataSoft<br>Licence: https://www.quandl.com/about/terms
p173
sVslide
p174
I10002
sVtype
p175
Vline
p176
sVname
p177
VTop 1% in the US
p178
sVchartOptions
p179
(dp180
Vdate
p181
Vdate
p182
sVunits
p183
(dp184
Vvalue
p185
V %
p186
ssVdata
p187
(dp188
Vdate
p189
(dp190
Vformat
p191
V%Y-%m-%d
p192
sVselector
p193
Vdate
p194
ssVquery
p195
(dp196
Vdomain
p197
Vconcentration-of-wealth
p198
sVtype
p199
Vtop_1
p200
sVzone
p201
Vus
p202
ssVprecision
p203
(dp204
Vvalue
p205
V,.1f
p206
sssVvalue
p207
Vvalue
p208
ssasVname
p209
VConcentration of wealth
p210
sa(dp211
Vkpis
p212
(lp213
(dp214
Vsource
p215
VSource: API openDataSoft<br>Licence: https://www.quandl.com/about/terms
p216
sVslide
p217
I10003
sVtype
p218
Vleaderboard
p219
sVname
p220
VIn 2010
p221
sVchartOptions
p222
(dp223
Vsort
p224
Vdesc
p225
sVvalue
p226
Vvalue
p227
sVlabel
p228
Vregion
p229
sVlimit
p230
I5
sVunits
p231
(dp232
Vvalue
p233
V %
p234
ssVdata
p235
(dp236
Vquery
p237
(dp238
Vdate
p239
V2010-12-31
p240
sVtype
p241
Vparent
p242
sVdomain
p243
Vworld-output-distribution
p244
sVtype_value
p245
V%
ssVprecision
p246
(dp247
Vvalue
p248
V.1f
p249
ssssa(dp250
Vsource
p251
VSource: API openDataSoft<br>Licence: https://www.quandl.com/about/terms
p252
sVslide
p253
I10003
sVtype
p254
Vleaderboard
p255
sVname
p256
VIn 2100
p257
sVchartOptions
p258
(dp259
Vsort
p260
Vdesc
p261
sVvalue
p262
Vvalue
p263
sVlabel
p264
Vregion
p265
sVlimit
p266
I5
sVunits
p267
(dp268
Vvalue
p269
V %
p270
ssVdata
p271
(dp272
Vquery
p273
(dp274
Vdate
p275
V2100-12-31
p276
sVtype
p277
Vparent
p278
sVdomain
p279
Vworld-output-distribution
p280
sVtype_value
p281
V%
ssVprecision
p282
(dp283
Vvalue
p284
V.1f
p285
ssssasVname
p286
VWorld output distribution
p287
sa(dp288
Vkpis
p289
(lp290
(dp291
Vsource
p292
VSource: API openDataSoft<br>Licence: https://www.quandl.com/about/terms
p293
sVslide
p294
I10004
sVtype
p295
Vnew-heatmap
p296
sVname
p297
VFocus 1970 vs 2010
p298
sVchartOptions
p299
(dp300
Vy
Vyear
p301
sVx
Vvariable
p302
sVdata
p303
(dp304
Vquery
p305
(lp306
(dp307
V$match
p308
(dp309
Vdomain
p310
Vprivate-capital-vs-national-income
p311
sVyear
p312
(dp313
V$in
p314
(lp315
V1970-12-31
p316
aV1985-12-31
p317
aV2010-12-31
p318
asssa(dp319
V$sort
p320
(dp321
Vyear
p322
I1
ssassVsentiment
p323
(dp324
Vvalue
p325
(dp326
Vdomain
p327
(lp328
I300
aI450
asVrange
p329
(lp330
Vpositive
p331
aVwarning
p332
aVnegative
p333
asssVvalue
p334
Vvalue
p335
ssasVname
p336
VPrivate capital vs National income
p337
sas.